; Function Attrs: nounwind uwtable
define ptr @OSSL_CMP_ITAV_new_rootCaCert(ptr noundef %0) local_unnamed_addr #1 {
  %2 = tail call ptr @ASN1_item_new(ptr noundef nonnull @OSSL_CMP_ITAV_it.local_it) #6
  %3 = icmp eq ptr %2, null
  br i1 %3, label %12, label %4

4:                                                ; preds = %1
  %.not = icmp eq ptr %0, null
  br i1 %.not, label %10, label %5

5:                                                ; preds = %4
  %6 = tail call ptr @X509_dup(ptr noundef nonnull %0) #6
  %7 = getelementptr inbounds nuw i8, ptr %2, i64 8
  store ptr %6, ptr %7, align 8, !tbaa !9
  %8 = icmp eq ptr %6, null
  br i1 %8, label %9, label %10

9:                                                ; preds = %5
  tail call void @ASN1_item_free(ptr noundef nonnull %2, ptr noundef nonnull @OSSL_CMP_ITAV_it.local_it) #6
  br label %12

10:                                               ; preds = %5, %4
  %11 = tail call ptr @OBJ_nid2obj(i32 noundef 1254) #6
  store ptr %11, ptr %2, align 8, !tbaa !3
  br label %12

12:                                               ; preds = %1, %10, %9
  %.0 = phi ptr [ null, %9 ], [ %2, %10 ], [ null, %1 ]
  ret ptr %.0
}